; Function Attrs: nounwind uwtable
define void @lv_checkbox_set_text_static(ptr noundef %0, ptr noundef %1) local_unnamed_addr #0 {
  %3 = getelementptr inbounds nuw i8, ptr %0, i64 72
  %4 = load i8, ptr %3, align 8
  %5 = and i8 %4, 1
  %.not = icmp eq i8 %5, 0
  br i1 %.not, label %6, label %9

6:                                                ; preds = %2
  %7 = getelementptr inbounds nuw i8, ptr %0, i64 64
  %8 = load ptr, ptr %7, align 8, !tbaa !3
  tail call void @lv_free(ptr noundef %8) #5
  %.pre = load i8, ptr %3, align 8
  br label %9

9:                                                ; preds = %6, %2
  %10 = phi i8 [ %.pre, %6 ], [ %4, %2 ]
  %11 = getelementptr inbounds nuw i8, ptr %0, i64 64
  store ptr %1, ptr %11, align 8, !tbaa !3
  %12 = or i8 %10, 1
  store i8 %12, ptr %3, align 8
  %13 = tail call zeroext i1 @lv_obj_refresh_self_size(ptr noundef nonnull %0) #5
  tail call void @lv_obj_invalidate(ptr noundef nonnull %0) #5
  ret void
}